target datalayout = "e-m:e-p270:32:32-p271:32:32-p272:64:64-i64:64-i128:128-f80:128-n8:16:32:64-S128"
target triple = "x86_64-pc-linux-gnu"

; Function Attrs: nounwind uwtable
define internal i32 @cookie_gen(ptr noundef %0, ptr noundef %1, ptr noundef %2) #0 {
  %4 = alloca ptr, align 8
  %5 = alloca ptr, align 8
  %6 = alloca ptr, align 8
  %7 = alloca i32, align 4
  store ptr %0, ptr %4, align 8, !tbaa !11
  store ptr %1, ptr %5, align 8, !tbaa !25
  store ptr %2, ptr %6, align 8, !tbaa !26
  call void @llvm.lifetime.start.p0(i64 4, ptr %7) #3
  store i32 0, ptr %7, align 4, !tbaa !4
  br label %8

8:                                                ; preds = %15, %3
  %9 = load i32, ptr %7, align 4, !tbaa !4
  %10 = icmp ult i32 %9, 20
  br i1 %10, label %11, label %20

11:                                               ; preds = %8
  %12 = load i32, ptr %7, align 4, !tbaa !4
  %13 = trunc i32 %12 to i8
  %14 = load ptr, ptr %5, align 8, !tbaa !25
  store i8 %13, ptr %14, align 1, !tbaa !28
  br label %15

15:                                               ; preds = %11
  %16 = load i32, ptr %7, align 4, !tbaa !4
  %17 = add i32 %16, 1
  store i32 %17, ptr %7, align 4, !tbaa !4
  %18 = load ptr, ptr %5, align 8, !tbaa !25
  %19 = getelementptr inbounds nuw i8, ptr %18, i32 1
  store ptr %19, ptr %5, align 8, !tbaa !25
  br label %8, !llvm.loop !29

20:                                               ; preds = %8
  %21 = load ptr, ptr %6, align 8, !tbaa !26
  store i32 20, ptr %21, align 4, !tbaa !4
  call void @llvm.lifetime.end.p0(i64 4, ptr %7) #3
  ret i32 1
}