; Function Attrs: nofree norecurse nosync nounwind memory(argmem: write) uwtable
define internal noundef i32 @cookie_gen(ptr readnone captures(none) %0, ptr noundef writeonly captures(none) %1, ptr noundef writeonly captures(none) %2) #3 {
  br label %4

4:                                                ; preds = %3, %4
  %.07 = phi i32 [ 0, %3 ], [ %6, %4 ]
  %.056 = phi ptr [ %1, %3 ], [ %7, %4 ]
  %5 = trunc nuw nsw i32 %.07 to i8
  store i8 %5, ptr %.056, align 1, !tbaa !14
  %6 = add nuw nsw i32 %.07, 1
  %7 = getelementptr inbounds nuw i8, ptr %.056, i64 1
  %exitcond.not = icmp eq i32 %6, 20
  br i1 %exitcond.not, label %8, label %4, !llvm.loop !15

8:                                                ; preds = %4
  store i32 20, ptr %2, align 4, !tbaa !17
  ret i32 1
}